; Function Attrs: mustprogress uwtable
define hidden noundef zeroext i1 @_ZN11OpenImageIO6v3_1_08BmpInput5closeEv(ptr noundef nonnull align 8 dereferenceable(472) initializes((184, 196), (344, 352), (464, 465)) %0) unnamed_addr #6 align 2 personality ptr @__gxx_personality_v0 {
  %2 = getelementptr inbounds nuw i8, ptr %0, i64 184
  store i64 0, ptr %2, align 8, !tbaa !11
  %3 = getelementptr inbounds nuw i8, ptr %0, i64 192
  store i32 0, ptr %3, align 8, !tbaa !57
  %4 = getelementptr inbounds nuw i8, ptr %0, i64 336
  %5 = getelementptr inbounds nuw i8, ptr %0, i64 344
  store i64 0, ptr %5, align 8, !tbaa !64
  %6 = load ptr, ptr %4, align 8, !tbaa !63
  store i8 0, ptr %6, align 1, !tbaa !65
  %7 = getelementptr inbounds nuw i8, ptr %0, i64 368
  %8 = load ptr, ptr %7, align 8, !tbaa !61
  %9 = getelementptr inbounds nuw i8, ptr %0, i64 376
  %10 = load ptr, ptr %9, align 8, !tbaa !83
  %.not.i.i.i = icmp eq ptr %10, %8
  br i1 %.not.i.i.i, label %_ZNSt6vectorIN11OpenImageIO6v3_1_07bmp_pvt11color_tableESaIS3_EE5clearEv.exit.i, label %11

11:                                               ; preds = %1
  store ptr %8, ptr %9, align 8, !tbaa !83
  br label %_ZNSt6vectorIN11OpenImageIO6v3_1_07bmp_pvt11color_tableESaIS3_EE5clearEv.exit.i

_ZNSt6vectorIN11OpenImageIO6v3_1_07bmp_pvt11color_tableESaIS3_EE5clearEv.exit.i: ; preds = %11, %1
  %12 = getelementptr inbounds nuw i8, ptr %0, i64 464
  store i8 0, ptr %12, align 8, !tbaa !58
  %13 = getelementptr inbounds nuw i8, ptr %0, i64 408
  %14 = load ptr, ptr %13, align 8, !tbaa !60
  %15 = getelementptr inbounds nuw i8, ptr %0, i64 400
  %16 = load ptr, ptr %15, align 8, !tbaa !84
  %17 = icmp eq ptr %14, %16
  br i1 %17, label %_ZNSt6vectorIhSaIhEE13shrink_to_fitEv.exit.i, label %18

18:                                               ; preds = %_ZNSt6vectorIN11OpenImageIO6v3_1_07bmp_pvt11color_tableESaIS3_EE5clearEv.exit.i
  %19 = getelementptr inbounds nuw i8, ptr %0, i64 392
  %20 = tail call noundef zeroext i1 @_ZNSt19__shrink_to_fit_auxISt6vectorIhSaIhEELb1EE8_S_do_itERS2_(ptr noundef nonnull align 8 dereferenceable(24) %19) #27
  br label %_ZNSt6vectorIhSaIhEE13shrink_to_fitEv.exit.i

_ZNSt6vectorIhSaIhEE13shrink_to_fitEv.exit.i:     ; preds = %18, %_ZNSt6vectorIN11OpenImageIO6v3_1_07bmp_pvt11color_tableESaIS3_EE5clearEv.exit.i
  %21 = getelementptr inbounds nuw i8, ptr %0, i64 432
  %22 = load ptr, ptr %21, align 8, !tbaa !60
  %23 = getelementptr inbounds nuw i8, ptr %0, i64 424
  %24 = load ptr, ptr %23, align 8, !tbaa !84
  %25 = icmp eq ptr %22, %24
  br i1 %25, label %_ZN11OpenImageIO6v3_1_08BmpInput4initEv.exit, label %26

26:                                               ; preds = %_ZNSt6vectorIhSaIhEE13shrink_to_fitEv.exit.i
  %27 = getelementptr inbounds nuw i8, ptr %0, i64 416
  %28 = tail call noundef zeroext i1 @_ZNSt19__shrink_to_fit_auxISt6vectorIhSaIhEELb1EE8_S_do_itERS2_(ptr noundef nonnull align 8 dereferenceable(24) %27) #27
  br label %_ZN11OpenImageIO6v3_1_08BmpInput4initEv.exit

_ZN11OpenImageIO6v3_1_08BmpInput4initEv.exit:     ; preds = %_ZNSt6vectorIhSaIhEE13shrink_to_fitEv.exit.i, %26
  tail call void @_ZN11OpenImageIO6v3_1_010ImageInput13ioproxy_clearEv(ptr noundef nonnull align 8 dereferenceable(472) %0)
  ret i1 true
}